target datalayout = "e-m:e-p270:32:32-p271:32:32-p272:64:64-i64:64-i128:128-f80:128-n8:16:32:64-S128"
target triple = "x86_64-pc-linux-gnu"

%struct.pkcs12_attr = type { ptr, ptr }

@.str.20 = private unnamed_addr constant [37 x i8] c"../openssl/test/pkcs12_format_test.c\00", align 1
@enc_default = internal constant { i32, [4 x i8], ptr, i32, [4 x i8] } { i32 146, [4 x i8] zeroinitializer, ptr @.str.47, i32 1000, [4 x i8] zeroinitializer }, align 8
@ATTRS1 = internal constant [4 x %struct.pkcs12_attr] [%struct.pkcs12_attr { ptr @.str.56, ptr @.str.57 }, %struct.pkcs12_attr { ptr @.str.58, ptr @.str.59 }, %struct.pkcs12_attr { ptr @.str.60, ptr @.str.61 }, %struct.pkcs12_attr zeroinitializer], align 16
@get_custom_oid.sec_nid = internal global i32 -1, align 4
@.str.52 = private unnamed_addr constant [67 x i8] c"OBJ_create(\221.3.5.7.9\22, \22CustomSecretOID\22, \22My custom secret OID\22)\00", align 1
@.str.53 = private unnamed_addr constant [10 x i8] c"1.3.5.7.9\00", align 1
@.str.54 = private unnamed_addr constant [16 x i8] c"CustomSecretOID\00", align 1
@.str.55 = private unnamed_addr constant [21 x i8] c"My custom secret OID\00", align 1
@mac_default = internal constant { i32, [4 x i8], ptr, i32, [4 x i8] } { i32 64, [4 x i8] zeroinitializer, ptr @.str.47, i32 1000, [4 x i8] zeroinitializer }, align 8
@.str.83 = private unnamed_addr constant [19 x i8] c"multi_contents.p12\00", align 1
@ATTRS2 = internal constant [4 x %struct.pkcs12_attr] [%struct.pkcs12_attr { ptr @.str.56, ptr @.str.85 }, %struct.pkcs12_attr { ptr @.str.58, ptr @.str.86 }, %struct.pkcs12_attr { ptr @.str.87, ptr @.str.88 }, %struct.pkcs12_attr zeroinitializer], align 16
@.str.84 = private unnamed_addr constant [22 x i8] c"VeryVerySecretMessage\00", align 1

; Function Attrs: nounwind uwtable
define internal i32 @get_custom_oid() #0 {
  %1 = alloca i32, align 4
  %2 = load i32, ptr @get_custom_oid.sec_nid, align 4, !tbaa !4
  %3 = icmp ne i32 %2, -1
  br i1 %3, label %4, label %6

4:                                                ; preds = %0
  %5 = load i32, ptr @get_custom_oid.sec_nid, align 4, !tbaa !4
  store i32 %5, ptr %1, align 4
  br label %15

6:                                                ; preds = %0
  %7 = call i32 @OBJ_create(ptr noundef @.str.53, ptr noundef @.str.54, ptr noundef @.str.55)
  %8 = icmp ne i32 %7, 0
  %9 = zext i1 %8 to i32
  %10 = call i32 @test_true(ptr noundef @.str.20, i32 noundef 324, ptr noundef @.str.52, i32 noundef %9)
  %11 = icmp ne i32 %10, 0
  br i1 %11, label %13, label %12

12:                                               ; preds = %6
  store i32 -1, ptr %1, align 4
  br label %15

13:                                               ; preds = %6
  %14 = call i32 @OBJ_txt2nid(ptr noundef @.str.54)
  store i32 %14, ptr @get_custom_oid.sec_nid, align 4, !tbaa !4
  store i32 %14, ptr %1, align 4
  br label %15

15:                                               ; preds = %13, %12, %4
  %16 = load i32, ptr %1, align 4
  ret i32 %16
}

; Function Attrs: nounwind uwtable
define internal i32 @test_multiple_contents() #0 {
  %1 = alloca ptr, align 8
  %2 = alloca i32, align 4
  call void @llvm.lifetime.start.p0(i64 8, ptr %1) #4
  %3 = call ptr @new_pkcs12_builder(ptr noundef @.str.83)
  store ptr %3, ptr %1, align 8, !tbaa !15
  call void @llvm.lifetime.start.p0(i64 4, ptr %2) #4
  %4 = call i32 @get_custom_oid()
  store i32 %4, ptr %2, align 4, !tbaa !4
  %5 = load ptr, ptr %1, align 8, !tbaa !15
  call void @start_pkcs12(ptr noundef %5)
  %6 = load ptr, ptr %1, align 8, !tbaa !15
  call void @start_contentinfo(ptr noundef %6)
  %7 = load ptr, ptr %1, align 8, !tbaa !15
  call void @add_certbag(ptr noundef %7, ptr noundef @CERT1, i32 noundef 497, ptr noundef @ATTRS1)
  %8 = load ptr, ptr %1, align 8, !tbaa !15
  call void @add_certbag(ptr noundef %8, ptr noundef @CERT2, i32 noundef 497, ptr noundef @ATTRS2)
  %9 = load ptr, ptr %1, align 8, !tbaa !15
  call void @add_keybag(ptr noundef %9, ptr noundef @KEY1, i32 noundef 609, ptr noundef @ATTRS1, ptr noundef @enc_default)
  %10 = load ptr, ptr %1, align 8, !tbaa !15
  call void @add_keybag(ptr noundef %10, ptr noundef @KEY2, i32 noundef 608, ptr noundef @ATTRS2, ptr noundef @enc_default)
  %11 = load ptr, ptr %1, align 8, !tbaa !15
  call void @end_contentinfo(ptr noundef %11)
  %12 = load ptr, ptr %1, align 8, !tbaa !15
  call void @start_contentinfo(ptr noundef %12)
  %13 = load ptr, ptr %1, align 8, !tbaa !15
  %14 = load i32, ptr %2, align 4, !tbaa !4
  call void @add_secretbag(ptr noundef %13, i32 noundef %14, ptr noundef @.str.84, ptr noundef @ATTRS1)
  %15 = load ptr, ptr %1, align 8, !tbaa !15
  call void @end_contentinfo_encrypted(ptr noundef %15, ptr noundef @enc_default)
  %16 = load ptr, ptr %1, align 8, !tbaa !15
  call void @end_pkcs12_with_mac(ptr noundef %16, ptr noundef @mac_default)
  %17 = load ptr, ptr %1, align 8, !tbaa !15
  call void @start_check_pkcs12_with_mac(ptr noundef %17, ptr noundef @mac_default)
  %18 = load ptr, ptr %1, align 8, !tbaa !15
  call void @start_check_contentinfo(ptr noundef %18)
  %19 = load ptr, ptr %1, align 8, !tbaa !15
  call void @check_certbag(ptr noundef %19, ptr noundef @CERT1, i32 noundef 497, ptr noundef @ATTRS1)
  %20 = load ptr, ptr %1, align 8, !tbaa !15
  call void @check_certbag(ptr noundef %20, ptr noundef @CERT2, i32 noundef 497, ptr noundef @ATTRS2)
  %21 = load ptr, ptr %1, align 8, !tbaa !15
  call void @check_keybag(ptr noundef %21, ptr noundef @KEY1, i32 noundef 609, ptr noundef @ATTRS1, ptr noundef @enc_default)
  %22 = load ptr, ptr %1, align 8, !tbaa !15
  call void @check_keybag(ptr noundef %22, ptr noundef @KEY2, i32 noundef 608, ptr noundef @ATTRS2, ptr noundef @enc_default)
  %23 = load ptr, ptr %1, align 8, !tbaa !15
  call void @end_check_contentinfo(ptr noundef %23)
  %24 = load ptr, ptr %1, align 8, !tbaa !15
  call void @start_check_contentinfo_encrypted(ptr noundef %24, ptr noundef @enc_default)
  %25 = load ptr, ptr %1, align 8, !tbaa !15
  %26 = load i32, ptr %2, align 4, !tbaa !4
  call void @check_secretbag(ptr noundef %25, i32 noundef %26, ptr noundef @.str.84, ptr noundef @ATTRS1)
  %27 = load ptr, ptr %1, align 8, !tbaa !15
  call void @end_check_contentinfo(ptr noundef %27)
  %28 = load ptr, ptr %1, align 8, !tbaa !15
  call void @end_check_pkcs12(ptr noundef %28)
  %29 = load ptr, ptr %1, align 8, !tbaa !15
  %30 = call i32 @end_pkcs12_builder(ptr noundef %29)
  call void @llvm.lifetime.end.p0(i64 4, ptr %2) #4
  call void @llvm.lifetime.end.p0(i64 8, ptr %1) #4
  ret i32 %30
}