; Function Attrs: nounwind uwtable
define internal i32 @test_multiple_contents() #1 {
  %1 = tail call ptr @new_pkcs12_builder(ptr noundef nonnull @.str.83) #4
  %2 = load i32, ptr @get_custom_oid.sec_nid, align 4, !tbaa !13
  %.not.i = icmp eq i32 %2, -1
  br i1 %.not.i, label %3, label %get_custom_oid.exit

3:                                                ; preds = %0
  %4 = tail call i32 @OBJ_create(ptr noundef nonnull @.str.53, ptr noundef nonnull @.str.54, ptr noundef nonnull @.str.55) #4
  %5 = icmp ne i32 %4, 0
  %6 = zext i1 %5 to i32
  %7 = tail call i32 @test_true(ptr noundef nonnull @.str.20, i32 noundef 324, ptr noundef nonnull @.str.52, i32 noundef %6) #4
  %.not2.i = icmp eq i32 %7, 0
  br i1 %.not2.i, label %get_custom_oid.exit, label %8

8:                                                ; preds = %3
  %9 = tail call i32 @OBJ_txt2nid(ptr noundef nonnull @.str.54) #4
  store i32 %9, ptr @get_custom_oid.sec_nid, align 4, !tbaa !13
  br label %get_custom_oid.exit

get_custom_oid.exit:                              ; preds = %0, %3, %8
  %.0.i = phi i32 [ %9, %8 ], [ %2, %0 ], [ -1, %3 ]
  tail call void @start_pkcs12(ptr noundef %1) #4
  tail call void @start_contentinfo(ptr noundef %1) #4
  tail call void @add_certbag(ptr noundef %1, ptr noundef nonnull @CERT1, i32 noundef 497, ptr noundef nonnull @ATTRS1) #4
  tail call void @add_certbag(ptr noundef %1, ptr noundef nonnull @CERT2, i32 noundef 497, ptr noundef nonnull @ATTRS2) #4
  tail call void @add_keybag(ptr noundef %1, ptr noundef nonnull @KEY1, i32 noundef 609, ptr noundef nonnull @ATTRS1, ptr noundef nonnull @enc_default) #4
  tail call void @add_keybag(ptr noundef %1, ptr noundef nonnull @KEY2, i32 noundef 608, ptr noundef nonnull @ATTRS2, ptr noundef nonnull @enc_default) #4
  tail call void @end_contentinfo(ptr noundef %1) #4
  tail call void @start_contentinfo(ptr noundef %1) #4
  tail call void @add_secretbag(ptr noundef %1, i32 noundef %.0.i, ptr noundef nonnull @.str.84, ptr noundef nonnull @ATTRS1) #4
  tail call void @end_contentinfo_encrypted(ptr noundef %1, ptr noundef nonnull @enc_default) #4
  tail call void @end_pkcs12_with_mac(ptr noundef %1, ptr noundef nonnull @mac_default) #4
  tail call void @start_check_pkcs12_with_mac(ptr noundef %1, ptr noundef nonnull @mac_default) #4
  tail call void @start_check_contentinfo(ptr noundef %1) #4
  tail call void @check_certbag(ptr noundef %1, ptr noundef nonnull @CERT1, i32 noundef 497, ptr noundef nonnull @ATTRS1) #4
  tail call void @check_certbag(ptr noundef %1, ptr noundef nonnull @CERT2, i32 noundef 497, ptr noundef nonnull @ATTRS2) #4
  tail call void @check_keybag(ptr noundef %1, ptr noundef nonnull @KEY1, i32 noundef 609, ptr noundef nonnull @ATTRS1, ptr noundef nonnull @enc_default) #4
  tail call void @check_keybag(ptr noundef %1, ptr noundef nonnull @KEY2, i32 noundef 608, ptr noundef nonnull @ATTRS2, ptr noundef nonnull @enc_default) #4
  tail call void @end_check_contentinfo(ptr noundef %1) #4
  tail call void @start_check_contentinfo_encrypted(ptr noundef %1, ptr noundef nonnull @enc_default) #4
  tail call void @check_secretbag(ptr noundef %1, i32 noundef %.0.i, ptr noundef nonnull @.str.84, ptr noundef nonnull @ATTRS1) #4
  tail call void @end_check_contentinfo(ptr noundef %1) #4
  tail call void @end_check_pkcs12(ptr noundef %1) #4
  %10 = tail call i32 @end_pkcs12_builder(ptr noundef %1) #4
  ret i32 %10
}